
Memory Configuration

Name             Origin             Length             Attributes
*default*        0x0000000000000000 0xffffffffffffffff

Linker script and memory map

LOAD build/art.o
LOAD build/framebuffer.o
LOAD build/GameplayLogic.o
LOAD build/Graphics.o
LOAD build/jtag.o
LOAD build/MainMenuArt.o
LOAD build/MainMenu.o
LOAD build/main.o
LOAD build/mapLogic.o
LOAD build/map.o
LOAD build/Math.o
LOAD build/PauseMenu.o
LOAD build/snes.o
LOAD build/strings.o
LOAD build/TestCode.o
LOAD build/drawPixel.o
LOAD uart.o
LOAD gpio.o

.init           0x0000000000008000        0x4
 *(.init)
 .init          0x0000000000008000        0x0 build/GameplayLogic.o
 .init          0x0000000000008000        0x4 build/main.o
                0x0000000000008000                _start
 .init          0x0000000000008004        0x0 build/mapLogic.o
 .init          0x0000000000008004        0x0 build/Math.o
 .init          0x0000000000008004        0x0 build/snes.o

.data           0x0000000000009080     0x3ca4
 *(.data)
 .data          0x0000000000009080        0x0 build/art.o
 .data          0x0000000000009080       0x64 build/framebuffer.o
                0x00000000000090e0                FrameBufferPointer
 *fill*         0x00000000000090e4        0xc 3f3f3f3f
 .data          0x00000000000090f0       0x14 build/GameplayLogic.o
 .data          0x0000000000009104        0x0 build/Graphics.o
 .data          0x0000000000009104        0x0 build/jtag.o
 .data          0x0000000000009104        0x0 build/MainMenuArt.o
 .data          0x0000000000009104        0x0 build/MainMenu.o
 .data          0x0000000000009104        0x0 build/main.o
 *fill*         0x0000000000009104        0xc 3f3f3f3f
 .data          0x0000000000009110        0x4 build/mapLogic.o
                0x0000000000009110                d_cameraPosition
 *fill*         0x0000000000009114        0xc 3f3f3f3f
 .data          0x0000000000009120     0x3c00 build/map.o
                0x0000000000009120                d_mapBackground
                0x000000000000af20                d_mapForeground
 .data          0x000000000000cd20        0x0 build/Math.o
 .data          0x000000000000cd20        0x0 build/PauseMenu.o
 .data          0x000000000000cd20        0x0 build/snes.o
 .data          0x000000000000cd20        0x4 build/strings.o
                0x000000000000cd20                d_numToPrint
 .data          0x000000000000cd24        0x0 build/TestCode.o
 .data          0x000000000000cd24        0x0 build/drawPixel.o
 .data          0x000000000000cd24        0x0 uart.o
 .data          0x000000000000cd24        0x0 gpio.o
 *.c.o(*)

.igot.plt       0x000000000000cd24        0x0
 .igot.plt      0x000000000000cd24        0x0 build/framebuffer.o

.text           0x000000000000cd30   0x16eb90
 *.c.o(.text)
 *(.text)
 .text          0x000000000000cd30    0x753a8 build/art.o
                0x000000000000cd30                t_artSpritesAccess
 .text          0x00000000000820d8       0x80 build/framebuffer.o
                0x00000000000820d8                InitFrameBuffer
 *fill*         0x0000000000082158        0x8 3f3f3f3f
 .text          0x0000000000082160      0x170 build/GameplayLogic.o
                0x0000000000082174                f_playingState
 .text          0x00000000000822d0      0x9a8 build/Graphics.o
                0x00000000000823a4                f_drawElement
                0x0000000000082404                f_colourScreen
                0x0000000000082440                d_rectangle
                0x0000000000082450                d_textColour
 .text          0x0000000000082c78       0x8c build/jtag.o
                0x0000000000082c78                EnableJTAG
 .text          0x0000000000082d04    0xf4718 build/MainMenuArt.o
                0x0000000000082d04                t_MainMenuLogo
                0x00000000001534fc                t_QuitNorm
                0x000000000015c4c4                t_QuitSelect
                0x000000000016548c                t_StartNorm
                0x000000000016e454                t_StartSelect
 .text          0x000000000017741c      0x154 build/MainMenu.o
                0x000000000017741c                f_mainMenu
 .text          0x0000000000177570       0xdc build/main.o
 *fill*         0x000000000017764c        0x4 3f3f3f3f
 .text          0x0000000000177650       0xbc build/mapLogic.o
                0x0000000000177650                t_cameraPosition
                0x0000000000177654                f_copyMap
                0x000000000017767c                f_drawMap
 *fill*         0x000000000017770c        0x4 3f3f3f3f
 .text          0x0000000000177710     0x3c00 build/map.o
                0x0000000000177710                t_mapBackground
                0x0000000000179510                t_mapForeground
 .text          0x000000000017b310       0x38 build/Math.o
                0x000000000017b310                f_modulo
                0x000000000017b334                f_digToASCII
 .text          0x000000000017b348       0xd4 build/PauseMenu.o
                0x000000000017b348                f_pauseMenu
 .text          0x000000000017b41c      0x1bc build/snes.o
                0x000000000017b41c                f_playInput
                0x000000000017b478                init_GPIO
                0x000000000017b554                Read_SNES
 *fill*         0x000000000017b5d8        0x8 3f3f3f3f
 .text          0x000000000017b5e0       0x24 build/strings.o
                0x000000000017b5e0                t_scoreLabel
                0x000000000017b5f0                t_livesLabel
                0x000000000017b600                t_coinsLable
 .text          0x000000000017b604       0x10 build/TestCode.o
                0x000000000017b604                f_tests3
 .text          0x000000000017b614       0x1c build/drawPixel.o
                0x000000000017b614                f_drawPixel
 .text          0x000000000017b630      0x1b8 uart.o
                0x000000000017b630                InitUART
                0x000000000017b6f0                PutCharUART
                0x000000000017b70c                GetCharUART
                0x000000000017b728                WriteStringUART
                0x000000000017b758                ReadLineUART
 .text          0x000000000017b7e8       0xd8 gpio.o
                0x000000000017b7e8                GetGpioAddress
                0x000000000017b7f0                SetGpioFunction
                0x000000000017b83c                SetGpio
                0x000000000017b878                GetGpio
OUTPUT(build/output.elf elf32-littlearm)

.glue_7         0x000000000017b8c0        0x0
 .glue_7        0x000000000017b8c0        0x0 linker stubs

.glue_7t        0x000000000017b8c0        0x0
 .glue_7t       0x000000000017b8c0        0x0 linker stubs

.vfp11_veneer   0x000000000017b8c0        0x0
 .vfp11_veneer  0x000000000017b8c0        0x0 linker stubs

.v4_bx          0x000000000017b8c0        0x0
 .v4_bx         0x000000000017b8c0        0x0 linker stubs

.iplt           0x000000000017b8c0        0x0
 .iplt          0x000000000017b8c0        0x0 build/framebuffer.o

.rel.dyn        0x000000000017b8c0        0x0
 .rel.iplt      0x000000000017b8c0        0x0 build/framebuffer.o

.bss            0x000000000017b8c0        0x0
 .bss           0x000000000017b8c0        0x0 build/art.o
 .bss           0x000000000017b8c0        0x0 build/framebuffer.o
 .bss           0x000000000017b8c0        0x0 build/GameplayLogic.o
 .bss           0x000000000017b8c0        0x0 build/Graphics.o
 .bss           0x000000000017b8c0        0x0 build/jtag.o
 .bss           0x000000000017b8c0        0x0 build/MainMenuArt.o
 .bss           0x000000000017b8c0        0x0 build/MainMenu.o
 .bss           0x000000000017b8c0        0x0 build/main.o
 .bss           0x000000000017b8c0        0x0 build/mapLogic.o
 .bss           0x000000000017b8c0        0x0 build/map.o
 .bss           0x000000000017b8c0        0x0 build/Math.o
 .bss           0x000000000017b8c0        0x0 build/PauseMenu.o
 .bss           0x000000000017b8c0        0x0 build/snes.o
 .bss           0x000000000017b8c0        0x0 build/strings.o
 .bss           0x000000000017b8c0        0x0 build/TestCode.o
 .bss           0x000000000017b8c0        0x0 build/drawPixel.o
 .bss           0x000000000017b8c0        0x0 uart.o
 .bss           0x000000000017b8c0        0x0 gpio.o

.ARM.attributes
                0x0000000000000000       0x37
 .ARM.attributes
                0x0000000000000000       0x29 build/art.o
 .ARM.attributes
                0x0000000000000029       0x29 build/framebuffer.o
 .ARM.attributes
                0x0000000000000052       0x29 build/GameplayLogic.o
 .ARM.attributes
                0x000000000000007b       0x29 build/Graphics.o
 .ARM.attributes
                0x00000000000000a4       0x29 build/jtag.o
 .ARM.attributes
                0x00000000000000cd       0x29 build/MainMenuArt.o
 .ARM.attributes
                0x00000000000000f6       0x29 build/MainMenu.o
 .ARM.attributes
                0x000000000000011f       0x29 build/main.o
 .ARM.attributes
                0x0000000000000148       0x29 build/mapLogic.o
 .ARM.attributes
                0x0000000000000171       0x29 build/map.o
 .ARM.attributes
                0x000000000000019a       0x29 build/Math.o
 .ARM.attributes
                0x00000000000001c3       0x29 build/PauseMenu.o
 .ARM.attributes
                0x00000000000001ec       0x29 build/snes.o
 .ARM.attributes
                0x0000000000000215       0x29 build/strings.o
 .ARM.attributes
                0x000000000000023e       0x29 build/TestCode.o
 .ARM.attributes
                0x0000000000000267       0x3b build/drawPixel.o
 .ARM.attributes
                0x00000000000002a2       0x29 uart.o
 .ARM.attributes
                0x00000000000002cb       0x29 gpio.o

.comment        0x0000000000000000       0x7f
 .comment       0x0000000000000000       0x7f build/drawPixel.o
                                         0x80 (size before relaxing)

.debug_line     0x0000000000000000      0x6c5
 .debug_line    0x0000000000000000       0x67 build/framebuffer.o
 .debug_line    0x0000000000000067       0xa3 build/GameplayLogic.o
 .debug_line    0x000000000000010a       0xbb build/Graphics.o
 .debug_line    0x00000000000001c5       0x61 build/jtag.o
 .debug_line    0x0000000000000226       0x9d build/MainMenu.o
 .debug_line    0x00000000000002c3       0x91 build/main.o
 .debug_line    0x0000000000000354       0x7b build/mapLogic.o
 .debug_line    0x00000000000003cf       0x4a build/Math.o
 .debug_line    0x0000000000000419       0x7f build/PauseMenu.o
 .debug_line    0x0000000000000498       0xb5 build/snes.o
 .debug_line    0x000000000000054d       0x48 build/TestCode.o
 .debug_line    0x0000000000000595       0xb7 uart.o
 .debug_line    0x000000000000064c       0x79 gpio.o

.debug_info     0x0000000000000000      0x5e1
 .debug_info    0x0000000000000000       0x79 build/framebuffer.o
 .debug_info    0x0000000000000079       0x7b build/GameplayLogic.o
 .debug_info    0x00000000000000f4       0x76 build/Graphics.o
 .debug_info    0x000000000000016a       0x72 build/jtag.o
 .debug_info    0x00000000000001dc       0x76 build/MainMenu.o
 .debug_info    0x0000000000000252       0x6e build/main.o
 .debug_info    0x00000000000002c0       0x76 build/mapLogic.o
 .debug_info    0x0000000000000336       0x72 build/Math.o
 .debug_info    0x00000000000003a8       0x77 build/PauseMenu.o
 .debug_info    0x000000000000041f       0x72 build/snes.o
 .debug_info    0x0000000000000491       0x76 build/TestCode.o
 .debug_info    0x0000000000000507       0x6d uart.o
 .debug_info    0x0000000000000574       0x6d gpio.o

.debug_abbrev   0x0000000000000000      0x102
 .debug_abbrev  0x0000000000000000       0x14 build/framebuffer.o
 .debug_abbrev  0x0000000000000014       0x14 build/GameplayLogic.o
 .debug_abbrev  0x0000000000000028       0x14 build/Graphics.o
 .debug_abbrev  0x000000000000003c       0x14 build/jtag.o
 .debug_abbrev  0x0000000000000050       0x14 build/MainMenu.o
 .debug_abbrev  0x0000000000000064       0x12 build/main.o
 .debug_abbrev  0x0000000000000076       0x14 build/mapLogic.o
 .debug_abbrev  0x000000000000008a       0x14 build/Math.o
 .debug_abbrev  0x000000000000009e       0x14 build/PauseMenu.o
 .debug_abbrev  0x00000000000000b2       0x14 build/snes.o
 .debug_abbrev  0x00000000000000c6       0x14 build/TestCode.o
 .debug_abbrev  0x00000000000000da       0x14 uart.o
 .debug_abbrev  0x00000000000000ee       0x14 gpio.o

.debug_aranges  0x0000000000000000      0x1a8
 .debug_aranges
                0x0000000000000000       0x20 build/framebuffer.o
 .debug_aranges
                0x0000000000000020       0x20 build/GameplayLogic.o
 .debug_aranges
                0x0000000000000040       0x20 build/Graphics.o
 .debug_aranges
                0x0000000000000060       0x20 build/jtag.o
 .debug_aranges
                0x0000000000000080       0x20 build/MainMenu.o
 .debug_aranges
                0x00000000000000a0       0x28 build/main.o
 .debug_aranges
                0x00000000000000c8       0x20 build/mapLogic.o
 .debug_aranges
                0x00000000000000e8       0x20 build/Math.o
 .debug_aranges
                0x0000000000000108       0x20 build/PauseMenu.o
 .debug_aranges
                0x0000000000000128       0x20 build/snes.o
 .debug_aranges
                0x0000000000000148       0x20 build/TestCode.o
 .debug_aranges
                0x0000000000000168       0x20 uart.o
 .debug_aranges
                0x0000000000000188       0x20 gpio.o

.debug_ranges   0x0000000000000000       0x20
 .debug_ranges  0x0000000000000000       0x20 build/main.o
